target datalayout = "e-m:e-p270:32:32-p271:32:32-p272:64:64-i64:64-i128:128-f80:128-n8:16:32:64-S128"
target triple = "x86_64-unknown-linux-gnu"

; Function Attrs: inlinehint mustprogress nounwind uwtable
define linkonce_odr noundef double @_ZSt3powIdiEN9__gnu_cxx9__promoteIDTplcvNS1_IT_Xsr3std12__is_integerIS2_EE7__valueEE6__typeELi0EcvNS1_IT0_Xsr3std12__is_integerIS5_EE7__valueEE6__typeELi0EEXsr3std12__is_integerIS8_EE7__valueEE6__typeES2_S5_(double noundef %__x, i32 noundef %__y) #8 comdat {
entry:
  %__x.addr = alloca double, align 8
  %__y.addr = alloca i32, align 4
  store double %__x, ptr %__x.addr, align 8, !tbaa !10
  store i32 %__y, ptr %__y.addr, align 4, !tbaa !46
  %0 = load double, ptr %__x.addr, align 8, !tbaa !10
  %1 = load i32, ptr %__y.addr, align 4, !tbaa !46
  %conv = sitofp i32 %1 to double
  %call = call double @pow(double noundef %0, double noundef %conv) #3, !tbaa !46
  ret double %call
}

; Function Attrs: mustprogress nounwind uwtable
define internal noundef double @_ZN8QuantLib12_GLOBAL__N_13f_4Edd(double noundef %_nu, double noundef %_lambda) #2 {
entry:
  %_nu.addr = alloca double, align 8
  %_lambda.addr = alloca double, align 8
  %lambda = alloca double, align 8
  %nu = alloca double, align 8
  store double %_nu, ptr %_nu.addr, align 8, !tbaa !10
  store double %_lambda, ptr %_lambda.addr, align 8, !tbaa !10
  call void @llvm.lifetime.start.p0(i64 8, ptr %lambda) #3
  %0 = load double, ptr %_lambda.addr, align 8, !tbaa !10
  store double %0, ptr %lambda, align 8, !tbaa !10
  call void @llvm.lifetime.start.p0(i64 8, ptr %nu) #3
  %1 = load double, ptr %_nu.addr, align 8, !tbaa !10
  store double %1, ptr %nu, align 8, !tbaa !10
  %2 = load double, ptr %lambda, align 8, !tbaa !10
  %call = call noundef double @_ZSt3powIdiEN9__gnu_cxx9__promoteIDTplcvNS1_IT_Xsr3std12__is_integerIS2_EE7__valueEE6__typeELi0EcvNS1_IT0_Xsr3std12__is_integerIS5_EE7__valueEE6__typeELi0EEXsr3std12__is_integerIS8_EE7__valueEE6__typeES2_S5_(double noundef %2, i32 noundef 4)
  %3 = load double, ptr %lambda, align 8, !tbaa !10
  %call1 = call noundef double @_ZSt3powIdiEN9__gnu_cxx9__promoteIDTplcvNS1_IT_Xsr3std12__is_integerIS2_EE7__valueEE6__typeELi0EcvNS1_IT0_Xsr3std12__is_integerIS5_EE7__valueEE6__typeELi0EEXsr3std12__is_integerIS8_EE7__valueEE6__typeES2_S5_(double noundef %3, i32 noundef 3)
  %mul = fmul double 4.000000e+00, %call1
  %4 = load double, ptr %nu, align 8, !tbaa !10
  %add = fadd double 6.000000e+00, %4
  %5 = call double @llvm.fmuladd.f64(double %mul, double %add, double %call)
  %6 = load double, ptr %lambda, align 8, !tbaa !10
  %call3 = call noundef double @_ZSt3powIdiEN9__gnu_cxx9__promoteIDTplcvNS1_IT_Xsr3std12__is_integerIS2_EE7__valueEE6__typeELi0EcvNS1_IT0_Xsr3std12__is_integerIS5_EE7__valueEE6__typeELi0EEXsr3std12__is_integerIS8_EE7__valueEE6__typeES2_S5_(double noundef %6, i32 noundef 2)
  %mul4 = fmul double 6.000000e+00, %call3
  %7 = load double, ptr %nu, align 8, !tbaa !10
  %8 = call double @llvm.fmuladd.f64(double 1.000000e+01, double %7, double 2.400000e+01)
  %9 = load double, ptr %nu, align 8, !tbaa !10
  %call6 = call noundef double @_ZSt3powIdiEN9__gnu_cxx9__promoteIDTplcvNS1_IT_Xsr3std12__is_integerIS2_EE7__valueEE6__typeELi0EcvNS1_IT0_Xsr3std12__is_integerIS5_EE7__valueEE6__typeELi0EEXsr3std12__is_integerIS8_EE7__valueEE6__typeES2_S5_(double noundef %9, i32 noundef 2)
  %add7 = fadd double %8, %call6
  %10 = call double @llvm.fmuladd.f64(double %mul4, double %add7, double %5)
  %11 = load double, ptr %lambda, align 8, !tbaa !10
  %mul9 = fmul double 4.000000e+00, %11
  %12 = load double, ptr %nu, align 8, !tbaa !10
  %13 = call double @llvm.fmuladd.f64(double 4.400000e+01, double %12, double 4.800000e+01)
  %14 = load double, ptr %nu, align 8, !tbaa !10
  %call11 = call noundef double @_ZSt3powIdiEN9__gnu_cxx9__promoteIDTplcvNS1_IT_Xsr3std12__is_integerIS2_EE7__valueEE6__typeELi0EcvNS1_IT0_Xsr3std12__is_integerIS5_EE7__valueEE6__typeELi0EEXsr3std12__is_integerIS8_EE7__valueEE6__typeES2_S5_(double noundef %14, i32 noundef 2)
  %15 = call double @llvm.fmuladd.f64(double 1.200000e+01, double %call11, double %13)
  %16 = load double, ptr %nu, align 8, !tbaa !10
  %call13 = call noundef double @_ZSt3powIdiEN9__gnu_cxx9__promoteIDTplcvNS1_IT_Xsr3std12__is_integerIS2_EE7__valueEE6__typeELi0EcvNS1_IT0_Xsr3std12__is_integerIS5_EE7__valueEE6__typeELi0EEXsr3std12__is_integerIS8_EE7__valueEE6__typeES2_S5_(double noundef %16, i32 noundef 3)
  %add14 = fadd double %15, %call13
  %17 = call double @llvm.fmuladd.f64(double %mul9, double %add14, double %10)
  %18 = load double, ptr %nu, align 8, !tbaa !10
  %19 = load double, ptr %nu, align 8, !tbaa !10
  %20 = call double @llvm.fmuladd.f64(double 4.400000e+01, double %19, double 4.800000e+01)
  %21 = load double, ptr %nu, align 8, !tbaa !10
  %call17 = call noundef double @_ZSt3powIdiEN9__gnu_cxx9__promoteIDTplcvNS1_IT_Xsr3std12__is_integerIS2_EE7__valueEE6__typeELi0EcvNS1_IT0_Xsr3std12__is_integerIS5_EE7__valueEE6__typeELi0EEXsr3std12__is_integerIS8_EE7__valueEE6__typeES2_S5_(double noundef %21, i32 noundef 2)
  %22 = call double @llvm.fmuladd.f64(double 1.200000e+01, double %call17, double %20)
  %23 = load double, ptr %nu, align 8, !tbaa !10
  %call19 = call noundef double @_ZSt3powIdiEN9__gnu_cxx9__promoteIDTplcvNS1_IT_Xsr3std12__is_integerIS2_EE7__valueEE6__typeELi0EcvNS1_IT0_Xsr3std12__is_integerIS5_EE7__valueEE6__typeELi0EEXsr3std12__is_integerIS8_EE7__valueEE6__typeES2_S5_(double noundef %23, i32 noundef 3)
  %add20 = fadd double %22, %call19
  %24 = call double @llvm.fmuladd.f64(double %18, double %add20, double %17)
  call void @llvm.lifetime.end.p0(i64 8, ptr %nu) #3
  call void @llvm.lifetime.end.p0(i64 8, ptr %lambda) #3
  ret double %24
}