; Function Attrs: mustprogress nofree nounwind willreturn memory(write) uwtable
define internal noundef double @_ZN8QuantLib12_GLOBAL__N_13f_4Edd(double noundef %_nu, double noundef %_lambda) #13 {
entry:
  %call.i = tail call noundef double @pow(double noundef %_lambda, double noundef 4.000000e+00) #35, !tbaa !57
  %call.i13 = tail call noundef double @pow(double noundef %_lambda, double noundef 3.000000e+00) #35, !tbaa !57
  %mul = fmul double %call.i13, 4.000000e+00
  %add = fadd double %_nu, 6.000000e+00
  %0 = tail call double @llvm.fmuladd.f64(double %mul, double %add, double %call.i)
  %square = fmul double %_lambda, %_lambda
  %mul4 = fmul double %square, 6.000000e+00
  %1 = tail call double @llvm.fmuladd.f64(double %_nu, double 1.000000e+01, double 2.400000e+01)
  %square20 = fmul double %_nu, %_nu
  %add7 = fadd double %1, %square20
  %2 = tail call double @llvm.fmuladd.f64(double %mul4, double %add7, double %0)
  %mul9 = fmul double %_lambda, 4.000000e+00
  %3 = tail call double @llvm.fmuladd.f64(double %_nu, double 4.400000e+01, double 4.800000e+01)
  %4 = tail call double @llvm.fmuladd.f64(double %square20, double 1.200000e+01, double %3)
  %call.i17 = tail call noundef double @pow(double noundef %_nu, double noundef 3.000000e+00) #35, !tbaa !57
  %add14 = fadd double %4, %call.i17
  %5 = tail call double @llvm.fmuladd.f64(double %mul9, double %add14, double %2)
  %call.i19 = tail call noundef double @pow(double noundef %_nu, double noundef 3.000000e+00) #35, !tbaa !57
  %add20 = fadd double %4, %call.i19
  %6 = tail call double @llvm.fmuladd.f64(double %_nu, double %add20, double %5)
  ret double %6
}